target datalayout = "e-m:e-p270:32:32-p271:32:32-p272:64:64-i64:64-i128:128-f80:128-n8:16:32:64-S128"
target triple = "x86_64-pc-linux-gnu"

@.str = private unnamed_addr constant [34 x i8] c"../openssl/crypto/cms/cms_smime.c\00", align 1
@__func__.CMS_EncryptedData_encrypt_ex = private unnamed_addr constant [29 x i8] c"CMS_EncryptedData_encrypt_ex\00", align 1

; Function Attrs: nounwind uwtable
define ptr @CMS_EncryptedData_encrypt_ex(ptr noundef %0, ptr noundef %1, ptr noundef %2, i64 noundef %3, i32 noundef %4, ptr noundef %5, ptr noundef %6) #0 {
  %8 = alloca ptr, align 8
  %9 = alloca ptr, align 8
  %10 = alloca ptr, align 8
  %11 = alloca ptr, align 8
  %12 = alloca i64, align 8
  %13 = alloca i32, align 4
  %14 = alloca ptr, align 8
  %15 = alloca ptr, align 8
  %16 = alloca ptr, align 8
  %17 = alloca i32, align 4
  store ptr %0, ptr %9, align 8, !tbaa !8
  store ptr %1, ptr %10, align 8, !tbaa !26
  store ptr %2, ptr %11, align 8, !tbaa !14
  store i64 %3, ptr %12, align 8, !tbaa !24
  store i32 %4, ptr %13, align 4, !tbaa !10
  store ptr %5, ptr %14, align 8, !tbaa !12
  store ptr %6, ptr %15, align 8, !tbaa !14
  call void @llvm.lifetime.start.p0(i64 8, ptr %16) #4
  %18 = load ptr, ptr %10, align 8, !tbaa !26
  %19 = icmp eq ptr %18, null
  br i1 %19, label %20, label %21

20:                                               ; preds = %7
  call void @ERR_new()
  call void @ERR_set_debug(ptr noundef @.str, i32 noundef 233, ptr noundef @__func__.CMS_EncryptedData_encrypt_ex)
  call void (i32, i32, ptr, ...) @ERR_set_error(i32 noundef 46, i32 noundef 126, ptr noundef null)
  store ptr null, ptr %8, align 8
  store i32 1, ptr %17, align 4
  br label %58

21:                                               ; preds = %7
  %22 = load ptr, ptr %14, align 8, !tbaa !12
  %23 = load ptr, ptr %15, align 8, !tbaa !14
  %24 = call ptr @CMS_ContentInfo_new_ex(ptr noundef %22, ptr noundef %23)
  store ptr %24, ptr %16, align 8, !tbaa !3
  %25 = load ptr, ptr %16, align 8, !tbaa !3
  %26 = icmp eq ptr %25, null
  br i1 %26, label %27, label %28

27:                                               ; preds = %21
  store ptr null, ptr %8, align 8
  store i32 1, ptr %17, align 4
  br label %58

28:                                               ; preds = %21
  %29 = load ptr, ptr %16, align 8, !tbaa !3
  %30 = load ptr, ptr %10, align 8, !tbaa !26
  %31 = load ptr, ptr %11, align 8, !tbaa !14
  %32 = load i64, ptr %12, align 8, !tbaa !24
  %33 = call i32 @CMS_EncryptedData_set1_key(ptr noundef %29, ptr noundef %30, ptr noundef %31, i64 noundef %32)
  %34 = icmp ne i32 %33, 0
  br i1 %34, label %36, label %35

35:                                               ; preds = %28
  br label %56

36:                                               ; preds = %28
  %37 = load i32, ptr %13, align 4, !tbaa !10
  %38 = and i32 %37, 64
  %39 = icmp ne i32 %38, 0
  br i1 %39, label %43, label %40

40:                                               ; preds = %36
  %41 = load ptr, ptr %16, align 8, !tbaa !3
  %42 = call i32 @CMS_set_detached(ptr noundef %41, i32 noundef 0)
  br label %43

43:                                               ; preds = %40, %36
  %44 = load i32, ptr %13, align 4, !tbaa !10
  %45 = and i32 %44, 20480
  %46 = icmp ne i32 %45, 0
  br i1 %46, label %53, label %47

47:                                               ; preds = %43
  %48 = load ptr, ptr %16, align 8, !tbaa !3
  %49 = load ptr, ptr %9, align 8, !tbaa !8
  %50 = load i32, ptr %13, align 4, !tbaa !10
  %51 = call i32 @CMS_final(ptr noundef %48, ptr noundef %49, ptr noundef null, i32 noundef %50)
  %52 = icmp ne i32 %51, 0
  br i1 %52, label %53, label %55

53:                                               ; preds = %47, %43
  %54 = load ptr, ptr %16, align 8, !tbaa !3
  store ptr %54, ptr %8, align 8
  store i32 1, ptr %17, align 4
  br label %58

55:                                               ; preds = %47
  br label %56

56:                                               ; preds = %55, %35
  %57 = load ptr, ptr %16, align 8, !tbaa !3
  call void @CMS_ContentInfo_free(ptr noundef %57)
  store ptr null, ptr %8, align 8
  store i32 1, ptr %17, align 4
  br label %58

58:                                               ; preds = %56, %53, %27, %20
  call void @llvm.lifetime.end.p0(i64 8, ptr %16) #4
  %59 = load ptr, ptr %8, align 8
  ret ptr %59
}