; Function Attrs: nounwind uwtable
define ptr @CMS_EncryptedData_encrypt_ex(ptr noundef %0, ptr noundef %1, ptr noundef %2, i64 noundef %3, i32 noundef %4, ptr noundef %5, ptr noundef %6) local_unnamed_addr #0 {
  %8 = icmp eq ptr %1, null
  br i1 %8, label %9, label %10

9:                                                ; preds = %7
  tail call void @ERR_new() #4
  tail call void @ERR_set_debug(ptr noundef nonnull @.str, i32 noundef 233, ptr noundef nonnull @__func__.CMS_EncryptedData_encrypt_ex) #4
  tail call void (i32, i32, ptr, ...) @ERR_set_error(i32 noundef 46, i32 noundef 126, ptr noundef null) #4
  br label %24

10:                                               ; preds = %7
  %11 = tail call ptr @CMS_ContentInfo_new_ex(ptr noundef %5, ptr noundef %6) #4
  %12 = icmp eq ptr %11, null
  br i1 %12, label %24, label %13

13:                                               ; preds = %10
  %14 = tail call i32 @CMS_EncryptedData_set1_key(ptr noundef nonnull %11, ptr noundef nonnull %1, ptr noundef %2, i64 noundef %3) #4
  %.not = icmp eq i32 %14, 0
  br i1 %.not, label %23, label %15

15:                                               ; preds = %13
  %16 = and i32 %4, 64
  %.not18 = icmp eq i32 %16, 0
  br i1 %.not18, label %17, label %19

17:                                               ; preds = %15
  %18 = tail call i32 @CMS_set_detached(ptr noundef nonnull %11, i32 noundef 0) #4
  br label %19

19:                                               ; preds = %17, %15
  %20 = and i32 %4, 20480
  %.not19 = icmp eq i32 %20, 0
  br i1 %.not19, label %21, label %24

21:                                               ; preds = %19
  %22 = tail call i32 @CMS_final(ptr noundef nonnull %11, ptr noundef %0, ptr noundef null, i32 noundef %4)
  %.not20 = icmp eq i32 %22, 0
  br i1 %.not20, label %23, label %24

23:                                               ; preds = %21, %13
  tail call void @CMS_ContentInfo_free(ptr noundef nonnull %11) #4
  br label %24

24:                                               ; preds = %19, %21, %10, %23, %9
  %.0 = phi ptr [ null, %9 ], [ null, %23 ], [ null, %10 ], [ %11, %21 ], [ %11, %19 ]
  ret ptr %.0
}